; Function Attrs: mustprogress uwtable
define void @_ZN32MLRenderingPointsParametersFrame16updateVisibilityEP9MeshModel(ptr nocapture noundef nonnull readonly align 8 dereferenceable(112) %0, ptr noundef %1) unnamed_addr #3 align 2 {
  %3 = getelementptr inbounds i8, ptr %0, i64 56
  %4 = load ptr, ptr %3, align 8
  %5 = getelementptr inbounds i8, ptr %0, i64 64
  %6 = load ptr, ptr %5, align 8
  %7 = tail call noundef zeroext i1 @_ZN18MLRenderingToolbar16updateVisibilityEP9MeshModel(ptr noundef nonnull align 8 dereferenceable(96) %6, ptr noundef %1)
  %8 = load ptr, ptr %4, align 8
  %9 = getelementptr inbounds i8, ptr %8, i64 104
  %10 = load ptr, ptr %9, align 8
  tail call void %10(ptr noundef nonnull align 8 dereferenceable(48) %4, i1 noundef zeroext %7)
  %11 = getelementptr inbounds i8, ptr %0, i64 72
  %12 = load ptr, ptr %11, align 8
  %13 = getelementptr inbounds i8, ptr %0, i64 80
  %14 = load ptr, ptr %13, align 8
  %15 = tail call noundef zeroext i1 @_ZN18MLRenderingToolbar16updateVisibilityEP9MeshModel(ptr noundef nonnull align 8 dereferenceable(96) %14, ptr noundef %1)
  %16 = load ptr, ptr %12, align 8
  %17 = getelementptr inbounds i8, ptr %16, i64 104
  %18 = load ptr, ptr %17, align 8
  tail call void %18(ptr noundef nonnull align 8 dereferenceable(48) %12, i1 noundef zeroext %15)
  %19 = getelementptr inbounds i8, ptr %0, i64 88
  %20 = load ptr, ptr %19, align 8
  %21 = getelementptr inbounds i8, ptr %0, i64 96
  %22 = load ptr, ptr %21, align 8
  %23 = getelementptr inbounds i8, ptr %22, i64 56
  %24 = load ptr, ptr %23, align 8
  %.not.i = icmp eq ptr %24, null
  br i1 %.not.i, label %_ZN23MLRenderingOnOffToolbar16updateVisibilityEP9MeshModel.exit, label %25

25:                                               ; preds = %2
  %26 = load ptr, ptr %24, align 8
  %27 = getelementptr inbounds i8, ptr %26, i64 120
  %28 = load ptr, ptr %27, align 8
  %29 = tail call noundef zeroext i1 %28(ptr noundef nonnull align 8 dereferenceable(16) %24, ptr noundef %1)
  %30 = getelementptr inbounds i8, ptr %22, i64 72
  %31 = load ptr, ptr %30, align 8
  tail call void @_ZN7QAction10setVisibleEb(ptr noundef nonnull align 8 dereferenceable(16) %31, i1 noundef zeroext %29)
  %32 = load ptr, ptr %30, align 8
  tail call void @_ZN7QAction12setCheckableEb(ptr noundef nonnull align 8 dereferenceable(16) %32, i1 noundef zeroext %29)
  %33 = getelementptr inbounds i8, ptr %22, i64 64
  %34 = load ptr, ptr %33, align 8
  tail call void @_ZN7QAction10setVisibleEb(ptr noundef nonnull align 8 dereferenceable(16) %34, i1 noundef zeroext %29)
  %35 = load ptr, ptr %33, align 8
  tail call void @_ZN7QAction12setCheckableEb(ptr noundef nonnull align 8 dereferenceable(16) %35, i1 noundef zeroext %29)
  br label %_ZN23MLRenderingOnOffToolbar16updateVisibilityEP9MeshModel.exit

_ZN23MLRenderingOnOffToolbar16updateVisibilityEP9MeshModel.exit: ; preds = %2, %25
  %.0.i = phi i1 [ %29, %25 ], [ false, %2 ]
  %36 = load ptr, ptr %20, align 8
  %37 = getelementptr inbounds i8, ptr %36, i64 104
  %38 = load ptr, ptr %37, align 8
  tail call void %38(ptr noundef nonnull align 8 dereferenceable(48) %20, i1 noundef zeroext %.0.i)
  ret void
}